; Function Attrs: mustprogress nounwind uwtable
define dso_local void @_ZN4llvm12IRSimilarity22IRSimilarityIdentifier14populateMapperERNS_8ArrayRefISt10unique_ptrINS_6ModuleESt14default_deleteIS4_EEEERSt6vectorIPNS0_17IRInstructionDataESaISC_EERSA_IjSaIjEE(ptr noundef nonnull align 8 dereferenceable(328) %0, ptr noundef nonnull readonly align 8 captures(none) dereferenceable(16) %1, ptr noundef nonnull align 8 dereferenceable(24) %2, ptr noundef nonnull align 8 dereferenceable(24) %3) local_unnamed_addr #0 align 2 {
  %5 = load ptr, ptr %1, align 8
  %6 = getelementptr inbounds nuw i8, ptr %1, i64 8
  %7 = load i64, ptr %6, align 8
  %8 = getelementptr inbounds %"class.std::unique_ptr.292", ptr %5, i64 %7
  %.not11 = icmp eq i64 %7, 0
  br i1 %.not11, label %._crit_edge, label %.lr.ph

.lr.ph:                                           ; preds = %4, %.lr.ph
  %.012 = phi ptr [ %10, %.lr.ph ], [ %5, %4 ]
  %9 = load ptr, ptr %.012, align 8
  tail call void @_ZN4llvm12IRSimilarity22IRSimilarityIdentifier14populateMapperERNS_6ModuleERSt6vectorIPNS0_17IRInstructionDataESaIS6_EERS4_IjSaIjEE(ptr noundef nonnull align 8 dereferenceable(328) %0, ptr noundef nonnull align 8 dereferenceable(857) %9, ptr noundef nonnull align 8 dereferenceable(24) %2, ptr noundef nonnull align 8 dereferenceable(24) %3)
  %10 = getelementptr inbounds nuw i8, ptr %.012, i64 8
  %.not = icmp eq ptr %10, %8
  br i1 %.not, label %._crit_edge, label %.lr.ph

._crit_edge:                                      ; preds = %.lr.ph, %4
  ret void
}